target datalayout = "e-m:e-p270:32:32-p271:32:32-p272:64:64-i64:64-i128:128-f80:128-n8:16:32:64-S128"
target triple = "x86_64-unknown-linux-gnu"

%"class.icu_75::ReorderingBuffer" = type { ptr, ptr, ptr, ptr, ptr, i32, i8, ptr, ptr }
%"class.icu_75::UnicodeString" = type { %"class.icu_75::Replaceable", %"union.icu_75::UnicodeString::StackBufferOrFields" }
%"class.icu_75::Replaceable" = type { %"class.icu_75::UObject" }
%"class.icu_75::UObject" = type { ptr }
%"union.icu_75::UnicodeString::StackBufferOrFields" = type { %struct.anon.0, [32 x i8] }
%struct.anon.0 = type { i16, i32, i32, ptr }

; Function Attrs: mustprogress nounwind uwtable
define linkonce_odr noundef i32 @_ZNK6icu_7513UnicodeString11getCapacityEv(ptr noundef nonnull align 8 dereferenceable(64) %this) #2 comdat align 2 {
entry:
  %this.addr = alloca ptr, align 8
  store ptr %this, ptr %this.addr, align 8
  %this1 = load ptr, ptr %this.addr, align 8
  %fUnion = getelementptr inbounds %"class.icu_75::UnicodeString", ptr %this1, i32 0, i32 1
  %fLengthAndFlags = getelementptr inbounds %struct.anon.0, ptr %fUnion, i32 0, i32 0
  %0 = load i16, ptr %fLengthAndFlags, align 8
  %conv = sext i16 %0 to i32
  %and = and i32 %conv, 2
  %tobool = icmp ne i32 %and, 0
  br i1 %tobool, label %cond.true, label %cond.false

cond.true:                                        ; preds = %entry
  br label %cond.end

cond.false:                                       ; preds = %entry
  %fUnion2 = getelementptr inbounds %"class.icu_75::UnicodeString", ptr %this1, i32 0, i32 1
  %fCapacity = getelementptr inbounds %struct.anon.0, ptr %fUnion2, i32 0, i32 2
  %1 = load i32, ptr %fCapacity, align 8
  br label %cond.end

cond.end:                                         ; preds = %cond.false, %cond.true
  %cond = phi i32 [ 27, %cond.true ], [ %1, %cond.false ]
  ret i32 %cond
}

; Function Attrs: mustprogress uwtable
define noundef signext i8 @_ZN6icu_7516ReorderingBuffer6resizeEiR10UErrorCode(ptr noundef nonnull align 8 dereferenceable(64) %this, i32 noundef %appendLength, ptr noundef nonnull align 4 dereferenceable(4) %errorCode) #0 align 2 {
entry:
  %retval = alloca i8, align 1
  %this.addr = alloca ptr, align 8
  %appendLength.addr = alloca i32, align 4
  %errorCode.addr = alloca ptr, align 8
  %reorderStartIndex = alloca i32, align 4
  %length = alloca i32, align 4
  %newCapacity = alloca i32, align 4
  %doubleCapacity = alloca i32, align 4
  store ptr %this, ptr %this.addr, align 8
  store i32 %appendLength, ptr %appendLength.addr, align 4
  store ptr %errorCode, ptr %errorCode.addr, align 8
  %this1 = load ptr, ptr %this.addr, align 8
  %reorderStart = getelementptr inbounds %"class.icu_75::ReorderingBuffer", ptr %this1, i32 0, i32 3
  %0 = load ptr, ptr %reorderStart, align 8
  %start = getelementptr inbounds %"class.icu_75::ReorderingBuffer", ptr %this1, i32 0, i32 2
  %1 = load ptr, ptr %start, align 8
  %sub.ptr.lhs.cast = ptrtoint ptr %0 to i64
  %sub.ptr.rhs.cast = ptrtoint ptr %1 to i64
  %sub.ptr.sub = sub i64 %sub.ptr.lhs.cast, %sub.ptr.rhs.cast
  %sub.ptr.div = sdiv exact i64 %sub.ptr.sub, 2
  %conv = trunc i64 %sub.ptr.div to i32
  store i32 %conv, ptr %reorderStartIndex, align 4
  %limit = getelementptr inbounds %"class.icu_75::ReorderingBuffer", ptr %this1, i32 0, i32 4
  %2 = load ptr, ptr %limit, align 8
  %start2 = getelementptr inbounds %"class.icu_75::ReorderingBuffer", ptr %this1, i32 0, i32 2
  %3 = load ptr, ptr %start2, align 8
  %sub.ptr.lhs.cast3 = ptrtoint ptr %2 to i64
  %sub.ptr.rhs.cast4 = ptrtoint ptr %3 to i64
  %sub.ptr.sub5 = sub i64 %sub.ptr.lhs.cast3, %sub.ptr.rhs.cast4
  %sub.ptr.div6 = sdiv exact i64 %sub.ptr.sub5, 2
  %conv7 = trunc i64 %sub.ptr.div6 to i32
  store i32 %conv7, ptr %length, align 4
  %str = getelementptr inbounds %"class.icu_75::ReorderingBuffer", ptr %this1, i32 0, i32 1
  %4 = load ptr, ptr %str, align 8
  %5 = load i32, ptr %length, align 4
  call void @_ZN6icu_7513UnicodeString13releaseBufferEi(ptr noundef nonnull align 8 dereferenceable(64) %4, i32 noundef %5)
  %6 = load i32, ptr %length, align 4
  %7 = load i32, ptr %appendLength.addr, align 4
  %add = add nsw i32 %6, %7
  store i32 %add, ptr %newCapacity, align 4
  %str8 = getelementptr inbounds %"class.icu_75::ReorderingBuffer", ptr %this1, i32 0, i32 1
  %8 = load ptr, ptr %str8, align 8
  %call = call noundef i32 @_ZNK6icu_7513UnicodeString11getCapacityEv(ptr noundef nonnull align 8 dereferenceable(64) %8)
  %mul = mul nsw i32 2, %call
  store i32 %mul, ptr %doubleCapacity, align 4
  %9 = load i32, ptr %newCapacity, align 4
  %10 = load i32, ptr %doubleCapacity, align 4
  %cmp = icmp slt i32 %9, %10
  br i1 %cmp, label %if.then, label %if.end

if.then:                                          ; preds = %entry
  %11 = load i32, ptr %doubleCapacity, align 4
  store i32 %11, ptr %newCapacity, align 4
  br label %if.end

if.end:                                           ; preds = %if.then, %entry
  %12 = load i32, ptr %newCapacity, align 4
  %cmp9 = icmp slt i32 %12, 256
  br i1 %cmp9, label %if.then10, label %if.end11

if.then10:                                        ; preds = %if.end
  store i32 256, ptr %newCapacity, align 4
  br label %if.end11

if.end11:                                         ; preds = %if.then10, %if.end
  %str12 = getelementptr inbounds %"class.icu_75::ReorderingBuffer", ptr %this1, i32 0, i32 1
  %13 = load ptr, ptr %str12, align 8
  %14 = load i32, ptr %newCapacity, align 4
  %call13 = call noundef ptr @_ZN6icu_7513UnicodeString9getBufferEi(ptr noundef nonnull align 8 dereferenceable(64) %13, i32 noundef %14)
  %start14 = getelementptr inbounds %"class.icu_75::ReorderingBuffer", ptr %this1, i32 0, i32 2
  store ptr %call13, ptr %start14, align 8
  %start15 = getelementptr inbounds %"class.icu_75::ReorderingBuffer", ptr %this1, i32 0, i32 2
  %15 = load ptr, ptr %start15, align 8
  %cmp16 = icmp eq ptr %15, null
  br i1 %cmp16, label %if.then17, label %if.end18

if.then17:                                        ; preds = %if.end11
  %16 = load ptr, ptr %errorCode.addr, align 8
  store i32 7, ptr %16, align 4
  store i8 0, ptr %retval, align 1
  br label %return

if.end18:                                         ; preds = %if.end11
  %start19 = getelementptr inbounds %"class.icu_75::ReorderingBuffer", ptr %this1, i32 0, i32 2
  %17 = load ptr, ptr %start19, align 8
  %18 = load i32, ptr %reorderStartIndex, align 4
  %idx.ext = sext i32 %18 to i64
  %add.ptr = getelementptr inbounds i16, ptr %17, i64 %idx.ext
  %reorderStart20 = getelementptr inbounds %"class.icu_75::ReorderingBuffer", ptr %this1, i32 0, i32 3
  store ptr %add.ptr, ptr %reorderStart20, align 8
  %start21 = getelementptr inbounds %"class.icu_75::ReorderingBuffer", ptr %this1, i32 0, i32 2
  %19 = load ptr, ptr %start21, align 8
  %20 = load i32, ptr %length, align 4
  %idx.ext22 = sext i32 %20 to i64
  %add.ptr23 = getelementptr inbounds i16, ptr %19, i64 %idx.ext22
  %limit24 = getelementptr inbounds %"class.icu_75::ReorderingBuffer", ptr %this1, i32 0, i32 4
  store ptr %add.ptr23, ptr %limit24, align 8
  %str25 = getelementptr inbounds %"class.icu_75::ReorderingBuffer", ptr %this1, i32 0, i32 1
  %21 = load ptr, ptr %str25, align 8
  %call26 = call noundef i32 @_ZNK6icu_7513UnicodeString11getCapacityEv(ptr noundef nonnull align 8 dereferenceable(64) %21)
  %22 = load i32, ptr %length, align 4
  %sub = sub nsw i32 %call26, %22
  %remainingCapacity = getelementptr inbounds %"class.icu_75::ReorderingBuffer", ptr %this1, i32 0, i32 5
  store i32 %sub, ptr %remainingCapacity, align 8
  store i8 1, ptr %retval, align 1
  br label %return

return:                                           ; preds = %if.end18, %if.then17
  %23 = load i8, ptr %retval, align 1
  ret i8 %23
}

; Function Attrs: mustprogress uwtable
define noundef signext i8 @_ZN6icu_7516ReorderingBuffer12appendZeroCCEiR10UErrorCode(ptr noundef nonnull align 8 dereferenceable(64) %this, i32 noundef %c, ptr noundef nonnull align 4 dereferenceable(4) %errorCode) #0 align 2 {
entry:
  %retval = alloca i8, align 1
  %this.addr = alloca ptr, align 8
  %c.addr = alloca i32, align 4
  %errorCode.addr = alloca ptr, align 8
  %cpLength = alloca i32, align 4
  store ptr %this, ptr %this.addr, align 8
  store i32 %c, ptr %c.addr, align 4
  store ptr %errorCode, ptr %errorCode.addr, align 8
  %this1 = load ptr, ptr %this.addr, align 8
  %0 = load i32, ptr %c.addr, align 4
  %cmp = icmp ule i32 %0, 65535
  %cond = select i1 %cmp, i32 1, i32 2
  store i32 %cond, ptr %cpLength, align 4
  %remainingCapacity = getelementptr inbounds %"class.icu_75::ReorderingBuffer", ptr %this1, i32 0, i32 5
  %1 = load i32, ptr %remainingCapacity, align 8
  %2 = load i32, ptr %cpLength, align 4
  %cmp2 = icmp slt i32 %1, %2
  br i1 %cmp2, label %land.lhs.true, label %if.end

land.lhs.true:                                    ; preds = %entry
  %3 = load i32, ptr %cpLength, align 4
  %4 = load ptr, ptr %errorCode.addr, align 8
  %call = call noundef signext i8 @_ZN6icu_7516ReorderingBuffer6resizeEiR10UErrorCode(ptr noundef nonnull align 8 dereferenceable(64) %this1, i32 noundef %3, ptr noundef nonnull align 4 dereferenceable(4) %4)
  %tobool = icmp ne i8 %call, 0
  br i1 %tobool, label %if.end, label %if.then

if.then:                                          ; preds = %land.lhs.true
  store i8 0, ptr %retval, align 1
  br label %return

if.end:                                           ; preds = %land.lhs.true, %entry
  %5 = load i32, ptr %cpLength, align 4
  %remainingCapacity3 = getelementptr inbounds %"class.icu_75::ReorderingBuffer", ptr %this1, i32 0, i32 5
  %6 = load i32, ptr %remainingCapacity3, align 8
  %sub = sub nsw i32 %6, %5
  store i32 %sub, ptr %remainingCapacity3, align 8
  %7 = load i32, ptr %cpLength, align 4
  %cmp4 = icmp eq i32 %7, 1
  br i1 %cmp4, label %if.then5, label %if.else

if.then5:                                         ; preds = %if.end
  %8 = load i32, ptr %c.addr, align 4
  %conv = trunc i32 %8 to i16
  %limit = getelementptr inbounds %"class.icu_75::ReorderingBuffer", ptr %this1, i32 0, i32 4
  %9 = load ptr, ptr %limit, align 8
  %incdec.ptr = getelementptr inbounds i16, ptr %9, i32 1
  store ptr %incdec.ptr, ptr %limit, align 8
  store i16 %conv, ptr %9, align 2
  br label %if.end12

if.else:                                          ; preds = %if.end
  %10 = load i32, ptr %c.addr, align 4
  %shr = ashr i32 %10, 10
  %add = add nsw i32 %shr, 55232
  %conv6 = trunc i32 %add to i16
  %limit7 = getelementptr inbounds %"class.icu_75::ReorderingBuffer", ptr %this1, i32 0, i32 4
  %11 = load ptr, ptr %limit7, align 8
  %arrayidx = getelementptr inbounds i16, ptr %11, i64 0
  store i16 %conv6, ptr %arrayidx, align 2
  %12 = load i32, ptr %c.addr, align 4
  %and = and i32 %12, 1023
  %or = or i32 %and, 56320
  %conv8 = trunc i32 %or to i16
  %limit9 = getelementptr inbounds %"class.icu_75::ReorderingBuffer", ptr %this1, i32 0, i32 4
  %13 = load ptr, ptr %limit9, align 8
  %arrayidx10 = getelementptr inbounds i16, ptr %13, i64 1
  store i16 %conv8, ptr %arrayidx10, align 2
  %limit11 = getelementptr inbounds %"class.icu_75::ReorderingBuffer", ptr %this1, i32 0, i32 4
  %14 = load ptr, ptr %limit11, align 8
  %add.ptr = getelementptr inbounds i16, ptr %14, i64 2
  store ptr %add.ptr, ptr %limit11, align 8
  br label %if.end12

if.end12:                                         ; preds = %if.else, %if.then5
  %lastCC = getelementptr inbounds %"class.icu_75::ReorderingBuffer", ptr %this1, i32 0, i32 6
  store i8 0, ptr %lastCC, align 4
  %limit13 = getelementptr inbounds %"class.icu_75::ReorderingBuffer", ptr %this1, i32 0, i32 4
  %15 = load ptr, ptr %limit13, align 8
  %reorderStart = getelementptr inbounds %"class.icu_75::ReorderingBuffer", ptr %this1, i32 0, i32 3
  store ptr %15, ptr %reorderStart, align 8
  store i8 1, ptr %retval, align 1
  br label %return

return:                                           ; preds = %if.end12, %if.then
  %16 = load i8, ptr %retval, align 1
  ret i8 %16
}