; Function Attrs: mustprogress uwtable
define noundef signext i8 @_ZN6icu_7516ReorderingBuffer12appendZeroCCEiR10UErrorCode(ptr nocapture noundef nonnull align 8 dereferenceable(64) %this, i32 noundef %c, ptr nocapture noundef nonnull writeonly align 4 dereferenceable(4) %errorCode) local_unnamed_addr #0 align 2 {
entry:
  %cmp = icmp ult i32 %c, 65536
  %cond = select i1 %cmp, i32 1, i32 2
  %remainingCapacity = getelementptr inbounds i8, ptr %this, i64 40
  %0 = load i32, ptr %remainingCapacity, align 8
  %cmp2 = icmp slt i32 %0, %cond
  br i1 %cmp2, label %land.lhs.true, label %if.end

land.lhs.true:                                    ; preds = %entry
  %reorderStart.i = getelementptr inbounds i8, ptr %this, i64 24
  %1 = load ptr, ptr %reorderStart.i, align 8
  %start.i = getelementptr inbounds i8, ptr %this, i64 16
  %2 = load ptr, ptr %start.i, align 8
  %sub.ptr.rhs.cast.i = ptrtoint ptr %2 to i64
  %limit.i = getelementptr inbounds i8, ptr %this, i64 32
  %3 = load ptr, ptr %limit.i, align 8
  %sub.ptr.lhs.cast3.i = ptrtoint ptr %3 to i64
  %sub.ptr.sub5.i = sub i64 %sub.ptr.lhs.cast3.i, %sub.ptr.rhs.cast.i
  %sub.ptr.div6.i = lshr exact i64 %sub.ptr.sub5.i, 1
  %conv7.i = trunc i64 %sub.ptr.div6.i to i32
  %str.i = getelementptr inbounds i8, ptr %this, i64 8
  %4 = load ptr, ptr %str.i, align 8
  tail call void @_ZN6icu_7513UnicodeString13releaseBufferEi(ptr noundef nonnull align 8 dereferenceable(64) %4, i32 noundef %conv7.i)
  %add.i = add nsw i32 %cond, %conv7.i
  %5 = load ptr, ptr %str.i, align 8
  %fUnion.i.i = getelementptr inbounds i8, ptr %5, i64 8
  %6 = load i16, ptr %fUnion.i.i, align 8
  %7 = and i16 %6, 2
  %tobool.not.i.i = icmp eq i16 %7, 0
  %fCapacity.i.i = getelementptr inbounds i8, ptr %5, i64 16
  %8 = load i32, ptr %fCapacity.i.i, align 8
  %9 = shl nsw i32 %8, 1
  %mul.i = select i1 %tobool.not.i.i, i32 %9, i32 54
  %spec.select.i = tail call i32 @llvm.smax.i32(i32 %add.i, i32 %mul.i)
  %spec.store.select.i = tail call i32 @llvm.smax.i32(i32 %spec.select.i, i32 256)
  %call13.i = tail call noundef ptr @_ZN6icu_7513UnicodeString9getBufferEi(ptr noundef nonnull align 8 dereferenceable(64) %5, i32 noundef %spec.store.select.i)
  store ptr %call13.i, ptr %start.i, align 8
  %cmp16.i = icmp eq ptr %call13.i, null
  br i1 %cmp16.i, label %_ZN6icu_7516ReorderingBuffer6resizeEiR10UErrorCode.exit.thread, label %_ZN6icu_7516ReorderingBuffer6resizeEiR10UErrorCode.exit

_ZN6icu_7516ReorderingBuffer6resizeEiR10UErrorCode.exit.thread: ; preds = %land.lhs.true
  store i32 7, ptr %errorCode, align 4
  br label %return

_ZN6icu_7516ReorderingBuffer6resizeEiR10UErrorCode.exit: ; preds = %land.lhs.true
  %sub.ptr.lhs.cast.i = ptrtoint ptr %1 to i64
  %sub.ptr.sub.i = sub i64 %sub.ptr.lhs.cast.i, %sub.ptr.rhs.cast.i
  %sext.i = shl i64 %sub.ptr.sub.i, 31
  %idx.ext.i = ashr i64 %sext.i, 32
  %add.ptr.i = getelementptr inbounds i16, ptr %call13.i, i64 %idx.ext.i
  store ptr %add.ptr.i, ptr %reorderStart.i, align 8
  %sext7.i = shl i64 %sub.ptr.sub5.i, 31
  %idx.ext22.i = ashr i64 %sext7.i, 32
  %add.ptr23.i = getelementptr inbounds i16, ptr %call13.i, i64 %idx.ext22.i
  store ptr %add.ptr23.i, ptr %limit.i, align 8
  %10 = load ptr, ptr %str.i, align 8
  %fUnion.i8.i = getelementptr inbounds i8, ptr %10, i64 8
  %11 = load i16, ptr %fUnion.i8.i, align 8
  %12 = and i16 %11, 2
  %tobool.not.i9.i = icmp eq i16 %12, 0
  %fCapacity.i10.i = getelementptr inbounds i8, ptr %10, i64 16
  %13 = load i32, ptr %fCapacity.i10.i, align 8
  %cond.i11.i = select i1 %tobool.not.i9.i, i32 %13, i32 27
  %sub.i = sub nsw i32 %cond.i11.i, %conv7.i
  br label %if.end

if.end:                                           ; preds = %_ZN6icu_7516ReorderingBuffer6resizeEiR10UErrorCode.exit, %entry
  %14 = phi i32 [ %sub.i, %_ZN6icu_7516ReorderingBuffer6resizeEiR10UErrorCode.exit ], [ %0, %entry ]
  %sub = sub nsw i32 %14, %cond
  store i32 %sub, ptr %remainingCapacity, align 8
  br i1 %cmp, label %if.then5, label %if.else

if.then5:                                         ; preds = %if.end
  %conv = trunc i32 %c to i16
  %limit = getelementptr inbounds i8, ptr %this, i64 32
  %15 = load ptr, ptr %limit, align 8
  %incdec.ptr = getelementptr inbounds i8, ptr %15, i64 2
  store ptr %incdec.ptr, ptr %limit, align 8
  store i16 %conv, ptr %15, align 2
  %.pre = load ptr, ptr %limit, align 8
  br label %if.end12

if.else:                                          ; preds = %if.end
  %shr = lshr i32 %c, 10
  %16 = trunc i32 %shr to i16
  %conv6 = add i16 %16, -10304
  %limit7 = getelementptr inbounds i8, ptr %this, i64 32
  %17 = load ptr, ptr %limit7, align 8
  store i16 %conv6, ptr %17, align 2
  %18 = trunc i32 %c to i16
  %19 = and i16 %18, 1023
  %conv8 = or disjoint i16 %19, -9216
  %20 = load ptr, ptr %limit7, align 8
  %arrayidx10 = getelementptr inbounds i8, ptr %20, i64 2
  store i16 %conv8, ptr %arrayidx10, align 2
  %21 = load ptr, ptr %limit7, align 8
  %add.ptr = getelementptr inbounds i8, ptr %21, i64 4
  store ptr %add.ptr, ptr %limit7, align 8
  br label %if.end12

if.end12:                                         ; preds = %if.else, %if.then5
  %22 = phi ptr [ %add.ptr, %if.else ], [ %.pre, %if.then5 ]
  %lastCC = getelementptr inbounds i8, ptr %this, i64 44
  store i8 0, ptr %lastCC, align 4
  %reorderStart = getelementptr inbounds i8, ptr %this, i64 24
  store ptr %22, ptr %reorderStart, align 8
  br label %return

return:                                           ; preds = %_ZN6icu_7516ReorderingBuffer6resizeEiR10UErrorCode.exit.thread, %if.end12
  %retval.0 = phi i8 [ 1, %if.end12 ], [ 0, %_ZN6icu_7516ReorderingBuffer6resizeEiR10UErrorCode.exit.thread ]
  ret i8 %retval.0
}